target datalayout = "e-m:e-p270:32:32-p271:32:32-p272:64:64-i64:64-i128:128-f80:128-n8:16:32:64-S128"
target triple = "x86_64-pc-linux-gnu"

%struct.kvs_comm = type { ptr, i32, ptr, ptr, ptr }

@kvs_comm_cnt = internal global i32 0, align 4
@.str = private unnamed_addr constant [13 x i8] c"pmi_server.c\00", align 1
@__func__._kvs_comm_dup = private unnamed_addr constant [14 x i8] c"_kvs_comm_dup\00", align 1
@kvs_comm_ptr = internal global ptr null, align 8

; Function Attrs: nounwind uwtable
define dso_local ptr @_kvs_comm_dup() #0 {
  %1 = alloca i32, align 4
  %2 = alloca i32, align 4
  %3 = alloca i32, align 4
  %4 = alloca ptr, align 8
  call void @llvm.lifetime.start.p0(i64 4, ptr %1) #9
  call void @llvm.lifetime.start.p0(i64 4, ptr %2) #9
  call void @llvm.lifetime.start.p0(i64 4, ptr %3) #9
  call void @llvm.lifetime.start.p0(i64 8, ptr %4) #9
  %5 = load i32, ptr @kvs_comm_cnt, align 4
  %6 = sext i32 %5 to i64
  %7 = mul i64 8, %6
  %8 = call ptr @slurm_xcalloc(i64 noundef 1, i64 noundef %7, i1 noundef zeroext true, i1 noundef zeroext false, ptr noundef @.str, i32 noundef 301, ptr noundef @__func__._kvs_comm_dup)
  store ptr %8, ptr %4, align 8
  store i32 0, ptr %1, align 4
  br label %9

9:                                                ; preds = %196, %0
  %10 = load i32, ptr %1, align 4
  %11 = load i32, ptr @kvs_comm_cnt, align 4
  %12 = icmp slt i32 %10, %11
  br i1 %12, label %13, label %199

13:                                               ; preds = %9
  %14 = call ptr @slurm_xcalloc(i64 noundef 1, i64 noundef 40, i1 noundef zeroext true, i1 noundef zeroext false, ptr noundef @.str, i32 noundef 303, ptr noundef @__func__._kvs_comm_dup)
  %15 = load ptr, ptr %4, align 8
  %16 = load i32, ptr %1, align 4
  %17 = sext i32 %16 to i64
  %18 = getelementptr inbounds ptr, ptr %15, i64 %17
  store ptr %14, ptr %18, align 8
  %19 = load ptr, ptr @kvs_comm_ptr, align 8
  %20 = load i32, ptr %1, align 4
  %21 = sext i32 %20 to i64
  %22 = getelementptr inbounds ptr, ptr %19, i64 %21
  %23 = load ptr, ptr %22, align 8
  %24 = getelementptr inbounds nuw %struct.kvs_comm, ptr %23, i32 0, i32 0
  %25 = load ptr, ptr %24, align 8
  %26 = call ptr @xstrdup(ptr noundef %25)
  %27 = load ptr, ptr %4, align 8
  %28 = load i32, ptr %1, align 4
  %29 = sext i32 %28 to i64
  %30 = getelementptr inbounds ptr, ptr %27, i64 %29
  %31 = load ptr, ptr %30, align 8
  %32 = getelementptr inbounds nuw %struct.kvs_comm, ptr %31, i32 0, i32 0
  store ptr %26, ptr %32, align 8
  %33 = load ptr, ptr @kvs_comm_ptr, align 8
  %34 = load i32, ptr %1, align 4
  %35 = sext i32 %34 to i64
  %36 = getelementptr inbounds ptr, ptr %33, i64 %35
  %37 = load ptr, ptr %36, align 8
  %38 = getelementptr inbounds nuw %struct.kvs_comm, ptr %37, i32 0, i32 1
  %39 = load i32, ptr %38, align 8
  %40 = load ptr, ptr %4, align 8
  %41 = load i32, ptr %1, align 4
  %42 = sext i32 %41 to i64
  %43 = getelementptr inbounds ptr, ptr %40, i64 %42
  %44 = load ptr, ptr %43, align 8
  %45 = getelementptr inbounds nuw %struct.kvs_comm, ptr %44, i32 0, i32 1
  store i32 %39, ptr %45, align 8
  %46 = load ptr, ptr %4, align 8
  %47 = load i32, ptr %1, align 4
  %48 = sext i32 %47 to i64
  %49 = getelementptr inbounds ptr, ptr %46, i64 %48
  %50 = load ptr, ptr %49, align 8
  %51 = getelementptr inbounds nuw %struct.kvs_comm, ptr %50, i32 0, i32 1
  %52 = load i32, ptr %51, align 8
  %53 = zext i32 %52 to i64
  %54 = mul i64 8, %53
  %55 = call ptr @slurm_xcalloc(i64 noundef 1, i64 noundef %54, i1 noundef zeroext true, i1 noundef zeroext false, ptr noundef @.str, i32 noundef 307, ptr noundef @__func__._kvs_comm_dup)
  %56 = load ptr, ptr %4, align 8
  %57 = load i32, ptr %1, align 4
  %58 = sext i32 %57 to i64
  %59 = getelementptr inbounds ptr, ptr %56, i64 %58
  %60 = load ptr, ptr %59, align 8
  %61 = getelementptr inbounds nuw %struct.kvs_comm, ptr %60, i32 0, i32 2
  store ptr %55, ptr %61, align 8
  %62 = load ptr, ptr %4, align 8
  %63 = load i32, ptr %1, align 4
  %64 = sext i32 %63 to i64
  %65 = getelementptr inbounds ptr, ptr %62, i64 %64
  %66 = load ptr, ptr %65, align 8
  %67 = getelementptr inbounds nuw %struct.kvs_comm, ptr %66, i32 0, i32 1
  %68 = load i32, ptr %67, align 8
  %69 = zext i32 %68 to i64
  %70 = mul i64 8, %69
  %71 = call ptr @slurm_xcalloc(i64 noundef 1, i64 noundef %70, i1 noundef zeroext true, i1 noundef zeroext false, ptr noundef @.str, i32 noundef 309, ptr noundef @__func__._kvs_comm_dup)
  %72 = load ptr, ptr %4, align 8
  %73 = load i32, ptr %1, align 4
  %74 = sext i32 %73 to i64
  %75 = getelementptr inbounds ptr, ptr %72, i64 %74
  %76 = load ptr, ptr %75, align 8
  %77 = getelementptr inbounds nuw %struct.kvs_comm, ptr %76, i32 0, i32 3
  store ptr %71, ptr %77, align 8
  %78 = load ptr, ptr @kvs_comm_ptr, align 8
  %79 = load i32, ptr %1, align 4
  %80 = sext i32 %79 to i64
  %81 = getelementptr inbounds ptr, ptr %78, i64 %80
  %82 = load ptr, ptr %81, align 8
  %83 = getelementptr inbounds nuw %struct.kvs_comm, ptr %82, i32 0, i32 4
  %84 = load ptr, ptr %83, align 8
  %85 = icmp eq ptr %84, null
  br i1 %85, label %86, label %103

86:                                               ; preds = %13
  %87 = load ptr, ptr @kvs_comm_ptr, align 8
  %88 = load i32, ptr %1, align 4
  %89 = sext i32 %88 to i64
  %90 = getelementptr inbounds ptr, ptr %87, i64 %89
  %91 = load ptr, ptr %90, align 8
  %92 = getelementptr inbounds nuw %struct.kvs_comm, ptr %91, i32 0, i32 1
  %93 = load i32, ptr %92, align 8
  %94 = zext i32 %93 to i64
  %95 = mul i64 2, %94
  %96 = call ptr @slurm_xcalloc(i64 noundef 1, i64 noundef %95, i1 noundef zeroext true, i1 noundef zeroext false, ptr noundef @.str, i32 noundef 313, ptr noundef @__func__._kvs_comm_dup)
  %97 = load ptr, ptr @kvs_comm_ptr, align 8
  %98 = load i32, ptr %1, align 4
  %99 = sext i32 %98 to i64
  %100 = getelementptr inbounds ptr, ptr %97, i64 %99
  %101 = load ptr, ptr %100, align 8
  %102 = getelementptr inbounds nuw %struct.kvs_comm, ptr %101, i32 0, i32 4
  store ptr %96, ptr %102, align 8
  br label %103

103:                                              ; preds = %86, %13
  store i32 0, ptr %3, align 4
  store i32 0, ptr %2, align 4
  br label %104

104:                                              ; preds = %185, %103
  %105 = load i32, ptr %2, align 4
  %106 = load ptr, ptr %4, align 8
  %107 = load i32, ptr %1, align 4
  %108 = sext i32 %107 to i64
  %109 = getelementptr inbounds ptr, ptr %106, i64 %108
  %110 = load ptr, ptr %109, align 8
  %111 = getelementptr inbounds nuw %struct.kvs_comm, ptr %110, i32 0, i32 1
  %112 = load i32, ptr %111, align 8
  %113 = icmp ult i32 %105, %112
  br i1 %113, label %114, label %188

114:                                              ; preds = %104
  %115 = load ptr, ptr @kvs_comm_ptr, align 8
  %116 = load i32, ptr %1, align 4
  %117 = sext i32 %116 to i64
  %118 = getelementptr inbounds ptr, ptr %115, i64 %117
  %119 = load ptr, ptr %118, align 8
  %120 = getelementptr inbounds nuw %struct.kvs_comm, ptr %119, i32 0, i32 4
  %121 = load ptr, ptr %120, align 8
  %122 = load i32, ptr %2, align 4
  %123 = sext i32 %122 to i64
  %124 = getelementptr inbounds i16, ptr %121, i64 %123
  %125 = load i16, ptr %124, align 2
  %126 = icmp ne i16 %125, 0
  br i1 %126, label %127, label %128

127:                                              ; preds = %114
  br label %185

128:                                              ; preds = %114
  %129 = load ptr, ptr @kvs_comm_ptr, align 8
  %130 = load i32, ptr %1, align 4
  %131 = sext i32 %130 to i64
  %132 = getelementptr inbounds ptr, ptr %129, i64 %131
  %133 = load ptr, ptr %132, align 8
  %134 = getelementptr inbounds nuw %struct.kvs_comm, ptr %133, i32 0, i32 2
  %135 = load ptr, ptr %134, align 8
  %136 = load i32, ptr %2, align 4
  %137 = sext i32 %136 to i64
  %138 = getelementptr inbounds ptr, ptr %135, i64 %137
  %139 = load ptr, ptr %138, align 8
  %140 = call ptr @xstrdup(ptr noundef %139)
  %141 = load ptr, ptr %4, align 8
  %142 = load i32, ptr %1, align 4
  %143 = sext i32 %142 to i64
  %144 = getelementptr inbounds ptr, ptr %141, i64 %143
  %145 = load ptr, ptr %144, align 8
  %146 = getelementptr inbounds nuw %struct.kvs_comm, ptr %145, i32 0, i32 2
  %147 = load ptr, ptr %146, align 8
  %148 = load i32, ptr %3, align 4
  %149 = sext i32 %148 to i64
  %150 = getelementptr inbounds ptr, ptr %147, i64 %149
  store ptr %140, ptr %150, align 8
  %151 = load ptr, ptr @kvs_comm_ptr, align 8
  %152 = load i32, ptr %1, align 4
  %153 = sext i32 %152 to i64
  %154 = getelementptr inbounds ptr, ptr %151, i64 %153
  %155 = load ptr, ptr %154, align 8
  %156 = getelementptr inbounds nuw %struct.kvs_comm, ptr %155, i32 0, i32 3
  %157 = load ptr, ptr %156, align 8
  %158 = load i32, ptr %2, align 4
  %159 = sext i32 %158 to i64
  %160 = getelementptr inbounds ptr, ptr %157, i64 %159
  %161 = load ptr, ptr %160, align 8
  %162 = call ptr @xstrdup(ptr noundef %161)
  %163 = load ptr, ptr %4, align 8
  %164 = load i32, ptr %1, align 4
  %165 = sext i32 %164 to i64
  %166 = getelementptr inbounds ptr, ptr %163, i64 %165
  %167 = load ptr, ptr %166, align 8
  %168 = getelementptr inbounds nuw %struct.kvs_comm, ptr %167, i32 0, i32 3
  %169 = load ptr, ptr %168, align 8
  %170 = load i32, ptr %3, align 4
  %171 = sext i32 %170 to i64
  %172 = getelementptr inbounds ptr, ptr %169, i64 %171
  store ptr %162, ptr %172, align 8
  %173 = load i32, ptr %3, align 4
  %174 = add nsw i32 %173, 1
  store i32 %174, ptr %3, align 4
  %175 = load ptr, ptr @kvs_comm_ptr, align 8
  %176 = load i32, ptr %1, align 4
  %177 = sext i32 %176 to i64
  %178 = getelementptr inbounds ptr, ptr %175, i64 %177
  %179 = load ptr, ptr %178, align 8
  %180 = getelementptr inbounds nuw %struct.kvs_comm, ptr %179, i32 0, i32 4
  %181 = load ptr, ptr %180, align 8
  %182 = load i32, ptr %2, align 4
  %183 = sext i32 %182 to i64
  %184 = getelementptr inbounds i16, ptr %181, i64 %183
  store i16 1, ptr %184, align 2
  br label %185

185:                                              ; preds = %128, %127
  %186 = load i32, ptr %2, align 4
  %187 = add nsw i32 %186, 1
  store i32 %187, ptr %2, align 4
  br label %104, !llvm.loop !8

188:                                              ; preds = %104
  %189 = load i32, ptr %3, align 4
  %190 = load ptr, ptr %4, align 8
  %191 = load i32, ptr %1, align 4
  %192 = sext i32 %191 to i64
  %193 = getelementptr inbounds ptr, ptr %190, i64 %192
  %194 = load ptr, ptr %193, align 8
  %195 = getelementptr inbounds nuw %struct.kvs_comm, ptr %194, i32 0, i32 1
  store i32 %189, ptr %195, align 8
  br label %196

196:                                              ; preds = %188
  %197 = load i32, ptr %1, align 4
  %198 = add nsw i32 %197, 1
  store i32 %198, ptr %1, align 4
  br label %9, !llvm.loop !11

199:                                              ; preds = %9
  %200 = load ptr, ptr %4, align 8
  call void @llvm.lifetime.end.p0(i64 8, ptr %4) #9
  call void @llvm.lifetime.end.p0(i64 4, ptr %3) #9
  call void @llvm.lifetime.end.p0(i64 4, ptr %2) #9
  call void @llvm.lifetime.end.p0(i64 4, ptr %1) #9
  ret ptr %200
}