; Function Attrs: nounwind uwtable
define dso_local ptr @_kvs_comm_dup() local_unnamed_addr #0 {
  %1 = load i32, ptr @kvs_comm_cnt, align 4
  %2 = sext i32 %1 to i64
  %3 = shl nsw i64 %2, 3
  %4 = tail call ptr @slurm_xcalloc(i64 noundef 1, i64 noundef %3, i1 noundef zeroext true, i1 noundef zeroext false, ptr noundef nonnull @.str, i32 noundef 301, ptr noundef nonnull @__func__._kvs_comm_dup) #12
  %5 = load i32, ptr @kvs_comm_cnt, align 4
  %6 = icmp sgt i32 %5, 0
  br i1 %6, label %.lr.ph51, label %._crit_edge52

.lr.ph51:                                         ; preds = %0, %._crit_edge
  %indvars.iv55 = phi i64 [ %indvars.iv.next56, %._crit_edge ], [ 0, %0 ]
  %7 = tail call ptr @slurm_xcalloc(i64 noundef 1, i64 noundef 40, i1 noundef zeroext true, i1 noundef zeroext false, ptr noundef nonnull @.str, i32 noundef 303, ptr noundef nonnull @__func__._kvs_comm_dup) #12
  %8 = getelementptr inbounds nuw ptr, ptr %4, i64 %indvars.iv55
  store ptr %7, ptr %8, align 8
  %9 = load ptr, ptr @kvs_comm_ptr, align 8
  %10 = getelementptr inbounds nuw ptr, ptr %9, i64 %indvars.iv55
  %11 = load ptr, ptr %10, align 8
  %12 = load ptr, ptr %11, align 8
  %13 = tail call ptr @xstrdup(ptr noundef %12) #12
  %14 = load ptr, ptr %8, align 8
  store ptr %13, ptr %14, align 8
  %15 = load ptr, ptr @kvs_comm_ptr, align 8
  %16 = getelementptr inbounds nuw ptr, ptr %15, i64 %indvars.iv55
  %17 = load ptr, ptr %16, align 8
  %18 = getelementptr inbounds nuw i8, ptr %17, i64 8
  %19 = load i32, ptr %18, align 8
  %20 = load ptr, ptr %8, align 8
  %21 = getelementptr inbounds nuw i8, ptr %20, i64 8
  store i32 %19, ptr %21, align 8
  %22 = load ptr, ptr %8, align 8
  %23 = getelementptr inbounds nuw i8, ptr %22, i64 8
  %24 = load i32, ptr %23, align 8
  %25 = zext i32 %24 to i64
  %26 = shl nuw nsw i64 %25, 3
  %27 = tail call ptr @slurm_xcalloc(i64 noundef 1, i64 noundef %26, i1 noundef zeroext true, i1 noundef zeroext false, ptr noundef nonnull @.str, i32 noundef 307, ptr noundef nonnull @__func__._kvs_comm_dup) #12
  %28 = load ptr, ptr %8, align 8
  %29 = getelementptr inbounds nuw i8, ptr %28, i64 16
  store ptr %27, ptr %29, align 8
  %30 = load ptr, ptr %8, align 8
  %31 = getelementptr inbounds nuw i8, ptr %30, i64 8
  %32 = load i32, ptr %31, align 8
  %33 = zext i32 %32 to i64
  %34 = shl nuw nsw i64 %33, 3
  %35 = tail call ptr @slurm_xcalloc(i64 noundef 1, i64 noundef %34, i1 noundef zeroext true, i1 noundef zeroext false, ptr noundef nonnull @.str, i32 noundef 309, ptr noundef nonnull @__func__._kvs_comm_dup) #12
  %36 = load ptr, ptr %8, align 8
  %37 = getelementptr inbounds nuw i8, ptr %36, i64 24
  store ptr %35, ptr %37, align 8
  %38 = load ptr, ptr @kvs_comm_ptr, align 8
  %39 = getelementptr inbounds nuw ptr, ptr %38, i64 %indvars.iv55
  %40 = load ptr, ptr %39, align 8
  %41 = getelementptr inbounds nuw i8, ptr %40, i64 32
  %42 = load ptr, ptr %41, align 8
  %43 = icmp eq ptr %42, null
  br i1 %43, label %44, label %54

44:                                               ; preds = %.lr.ph51
  %45 = getelementptr inbounds nuw i8, ptr %40, i64 8
  %46 = load i32, ptr %45, align 8
  %47 = zext i32 %46 to i64
  %48 = shl nuw nsw i64 %47, 1
  %49 = tail call ptr @slurm_xcalloc(i64 noundef 1, i64 noundef %48, i1 noundef zeroext true, i1 noundef zeroext false, ptr noundef nonnull @.str, i32 noundef 313, ptr noundef nonnull @__func__._kvs_comm_dup) #12
  %50 = load ptr, ptr @kvs_comm_ptr, align 8
  %51 = getelementptr inbounds nuw ptr, ptr %50, i64 %indvars.iv55
  %52 = load ptr, ptr %51, align 8
  %53 = getelementptr inbounds nuw i8, ptr %52, i64 32
  store ptr %49, ptr %53, align 8
  br label %54

54:                                               ; preds = %44, %.lr.ph51
  %.pre58 = phi ptr [ %50, %44 ], [ %38, %.lr.ph51 ]
  %55 = load ptr, ptr %8, align 8
  %56 = getelementptr inbounds nuw i8, ptr %55, i64 8
  %57 = load i32, ptr %56, align 8
  %.not53 = icmp eq i32 %57, 0
  br i1 %.not53, label %._crit_edge, label %.lr.ph

.lr.ph:                                           ; preds = %54, %96
  %58 = phi ptr [ %97, %96 ], [ %55, %54 ]
  %59 = phi ptr [ %98, %96 ], [ %.pre58, %54 ]
  %indvars.iv = phi i64 [ %indvars.iv.next, %96 ], [ 0, %54 ]
  %.04347 = phi i32 [ %.1, %96 ], [ 0, %54 ]
  %60 = getelementptr inbounds nuw ptr, ptr %59, i64 %indvars.iv55
  %61 = load ptr, ptr %60, align 8
  %62 = getelementptr inbounds nuw i8, ptr %61, i64 32
  %63 = load ptr, ptr %62, align 8
  %64 = getelementptr inbounds nuw i16, ptr %63, i64 %indvars.iv
  %65 = load i16, ptr %64, align 2
  %.not = icmp eq i16 %65, 0
  br i1 %.not, label %66, label %96

66:                                               ; preds = %.lr.ph
  %67 = getelementptr inbounds nuw i8, ptr %61, i64 16
  %68 = load ptr, ptr %67, align 8
  %69 = getelementptr inbounds nuw ptr, ptr %68, i64 %indvars.iv
  %70 = load ptr, ptr %69, align 8
  %71 = tail call ptr @xstrdup(ptr noundef %70) #12
  %72 = load ptr, ptr %8, align 8
  %73 = getelementptr inbounds nuw i8, ptr %72, i64 16
  %74 = load ptr, ptr %73, align 8
  %75 = sext i32 %.04347 to i64
  %76 = getelementptr inbounds ptr, ptr %74, i64 %75
  store ptr %71, ptr %76, align 8
  %77 = load ptr, ptr @kvs_comm_ptr, align 8
  %78 = getelementptr inbounds nuw ptr, ptr %77, i64 %indvars.iv55
  %79 = load ptr, ptr %78, align 8
  %80 = getelementptr inbounds nuw i8, ptr %79, i64 24
  %81 = load ptr, ptr %80, align 8
  %82 = getelementptr inbounds nuw ptr, ptr %81, i64 %indvars.iv
  %83 = load ptr, ptr %82, align 8
  %84 = tail call ptr @xstrdup(ptr noundef %83) #12
  %85 = load ptr, ptr %8, align 8
  %86 = getelementptr inbounds nuw i8, ptr %85, i64 24
  %87 = load ptr, ptr %86, align 8
  %88 = getelementptr inbounds ptr, ptr %87, i64 %75
  store ptr %84, ptr %88, align 8
  %89 = add nsw i32 %.04347, 1
  %90 = load ptr, ptr @kvs_comm_ptr, align 8
  %91 = getelementptr inbounds nuw ptr, ptr %90, i64 %indvars.iv55
  %92 = load ptr, ptr %91, align 8
  %93 = getelementptr inbounds nuw i8, ptr %92, i64 32
  %94 = load ptr, ptr %93, align 8
  %95 = getelementptr inbounds nuw i16, ptr %94, i64 %indvars.iv
  store i16 1, ptr %95, align 2
  %.pre = load ptr, ptr @kvs_comm_ptr, align 8
  %.pre59 = load ptr, ptr %8, align 8
  br label %96

96:                                               ; preds = %.lr.ph, %66
  %97 = phi ptr [ %58, %.lr.ph ], [ %.pre59, %66 ]
  %98 = phi ptr [ %59, %.lr.ph ], [ %.pre, %66 ]
  %.1 = phi i32 [ %.04347, %.lr.ph ], [ %89, %66 ]
  %indvars.iv.next = add nuw nsw i64 %indvars.iv, 1
  %99 = getelementptr inbounds nuw i8, ptr %97, i64 8
  %100 = load i32, ptr %99, align 8
  %101 = zext i32 %100 to i64
  %102 = icmp samesign ult i64 %indvars.iv.next, %101
  br i1 %102, label %.lr.ph, label %._crit_edge, !llvm.loop !8

._crit_edge:                                      ; preds = %96, %54
  %.lcssa45 = phi ptr [ %55, %54 ], [ %97, %96 ]
  %.043.lcssa = phi i32 [ 0, %54 ], [ %.1, %96 ]
  %103 = getelementptr inbounds nuw i8, ptr %.lcssa45, i64 8
  store i32 %.043.lcssa, ptr %103, align 8
  %indvars.iv.next56 = add nuw nsw i64 %indvars.iv55, 1
  %104 = load i32, ptr @kvs_comm_cnt, align 4
  %105 = sext i32 %104 to i64
  %106 = icmp slt i64 %indvars.iv.next56, %105
  br i1 %106, label %.lr.ph51, label %._crit_edge52, !llvm.loop !11

._crit_edge52:                                    ; preds = %._crit_edge, %0
  ret ptr %4
}